target datalayout = "e-m:e-p270:32:32-p271:32:32-p272:64:64-i64:64-i128:128-f80:128-n8:16:32:64-S128"
target triple = "x86_64-pc-linux-gnu"

; Function Attrs: nounwind uwtable
define internal void @avg_h264_chroma_mc1_16_c(ptr noundef %0, ptr noundef %1, i64 noundef %2, i32 noundef %3, i32 noundef %4, i32 noundef %5) #1 {
  %7 = alloca ptr, align 8
  %8 = alloca ptr, align 8
  %9 = alloca i64, align 8
  %10 = alloca i32, align 4
  %11 = alloca i32, align 4
  %12 = alloca i32, align 4
  %13 = alloca ptr, align 8
  %14 = alloca ptr, align 8
  %15 = alloca i32, align 4
  %16 = alloca i32, align 4
  %17 = alloca i32, align 4
  %18 = alloca i32, align 4
  %19 = alloca i32, align 4
  %20 = alloca i32, align 4
  %21 = alloca i32, align 4
  store ptr %0, ptr %7, align 8, !tbaa !12
  store ptr %1, ptr %8, align 8, !tbaa !12
  store i64 %2, ptr %9, align 8, !tbaa !14
  store i32 %3, ptr %10, align 4, !tbaa !9
  store i32 %4, ptr %11, align 4, !tbaa !9
  store i32 %5, ptr %12, align 4, !tbaa !9
  call void @llvm.lifetime.start.p0(i64 8, ptr %13) #3
  %22 = load ptr, ptr %7, align 8, !tbaa !12
  store ptr %22, ptr %13, align 8, !tbaa !16
  call void @llvm.lifetime.start.p0(i64 8, ptr %14) #3
  %23 = load ptr, ptr %8, align 8, !tbaa !12
  store ptr %23, ptr %14, align 8, !tbaa !16
  call void @llvm.lifetime.start.p0(i64 4, ptr %15) #3
  %24 = load i32, ptr %11, align 4, !tbaa !9
  %25 = sub nsw i32 8, %24
  %26 = load i32, ptr %12, align 4, !tbaa !9
  %27 = sub nsw i32 8, %26
  %28 = mul nsw i32 %25, %27
  store i32 %28, ptr %15, align 4, !tbaa !9
  call void @llvm.lifetime.start.p0(i64 4, ptr %16) #3
  %29 = load i32, ptr %11, align 4, !tbaa !9
  %30 = load i32, ptr %12, align 4, !tbaa !9
  %31 = sub nsw i32 8, %30
  %32 = mul nsw i32 %29, %31
  store i32 %32, ptr %16, align 4, !tbaa !9
  call void @llvm.lifetime.start.p0(i64 4, ptr %17) #3
  %33 = load i32, ptr %11, align 4, !tbaa !9
  %34 = sub nsw i32 8, %33
  %35 = load i32, ptr %12, align 4, !tbaa !9
  %36 = mul nsw i32 %34, %35
  store i32 %36, ptr %17, align 4, !tbaa !9
  call void @llvm.lifetime.start.p0(i64 4, ptr %18) #3
  %37 = load i32, ptr %11, align 4, !tbaa !9
  %38 = load i32, ptr %12, align 4, !tbaa !9
  %39 = mul nsw i32 %37, %38
  store i32 %39, ptr %18, align 4, !tbaa !9
  call void @llvm.lifetime.start.p0(i64 4, ptr %19) #3
  %40 = load i64, ptr %9, align 8, !tbaa !14
  %41 = ashr i64 %40, 1
  store i64 %41, ptr %9, align 8, !tbaa !14
  %42 = load i32, ptr %18, align 4, !tbaa !9
  %43 = icmp ne i32 %42, 0
  br i1 %43, label %44, label %103

44:                                               ; preds = %6
  store i32 0, ptr %19, align 4, !tbaa !9
  br label %45

45:                                               ; preds = %99, %44
  %46 = load i32, ptr %19, align 4, !tbaa !9
  %47 = load i32, ptr %10, align 4, !tbaa !9
  %48 = icmp slt i32 %46, %47
  br i1 %48, label %49, label %102

49:                                               ; preds = %45
  %50 = load ptr, ptr %13, align 8, !tbaa !16
  %51 = getelementptr inbounds i16, ptr %50, i64 0
  %52 = load i16, ptr %51, align 2, !tbaa !18
  %53 = zext i16 %52 to i32
  %54 = load i32, ptr %15, align 4, !tbaa !9
  %55 = load ptr, ptr %14, align 8, !tbaa !16
  %56 = getelementptr inbounds i16, ptr %55, i64 0
  %57 = load i16, ptr %56, align 2, !tbaa !18
  %58 = zext i16 %57 to i32
  %59 = mul nsw i32 %54, %58
  %60 = load i32, ptr %16, align 4, !tbaa !9
  %61 = load ptr, ptr %14, align 8, !tbaa !16
  %62 = getelementptr inbounds i16, ptr %61, i64 1
  %63 = load i16, ptr %62, align 2, !tbaa !18
  %64 = zext i16 %63 to i32
  %65 = mul nsw i32 %60, %64
  %66 = add nsw i32 %59, %65
  %67 = load i32, ptr %17, align 4, !tbaa !9
  %68 = load ptr, ptr %14, align 8, !tbaa !16
  %69 = load i64, ptr %9, align 8, !tbaa !14
  %70 = add nsw i64 %69, 0
  %71 = getelementptr inbounds i16, ptr %68, i64 %70
  %72 = load i16, ptr %71, align 2, !tbaa !18
  %73 = zext i16 %72 to i32
  %74 = mul nsw i32 %67, %73
  %75 = add nsw i32 %66, %74
  %76 = load i32, ptr %18, align 4, !tbaa !9
  %77 = load ptr, ptr %14, align 8, !tbaa !16
  %78 = load i64, ptr %9, align 8, !tbaa !14
  %79 = add nsw i64 %78, 1
  %80 = getelementptr inbounds i16, ptr %77, i64 %79
  %81 = load i16, ptr %80, align 2, !tbaa !18
  %82 = zext i16 %81 to i32
  %83 = mul nsw i32 %76, %82
  %84 = add nsw i32 %75, %83
  %85 = add nsw i32 %84, 32
  %86 = ashr i32 %85, 6
  %87 = add nsw i32 %53, %86
  %88 = add nsw i32 %87, 1
  %89 = ashr i32 %88, 1
  %90 = trunc i32 %89 to i16
  %91 = load ptr, ptr %13, align 8, !tbaa !16
  %92 = getelementptr inbounds i16, ptr %91, i64 0
  store i16 %90, ptr %92, align 2, !tbaa !18
  %93 = load i64, ptr %9, align 8, !tbaa !14
  %94 = load ptr, ptr %13, align 8, !tbaa !16
  %95 = getelementptr inbounds i16, ptr %94, i64 %93
  store ptr %95, ptr %13, align 8, !tbaa !16
  %96 = load i64, ptr %9, align 8, !tbaa !14
  %97 = load ptr, ptr %14, align 8, !tbaa !16
  %98 = getelementptr inbounds i16, ptr %97, i64 %96
  store ptr %98, ptr %14, align 8, !tbaa !16
  br label %99

99:                                               ; preds = %49
  %100 = load i32, ptr %19, align 4, !tbaa !9
  %101 = add nsw i32 %100, 1
  store i32 %101, ptr %19, align 4, !tbaa !9
  br label %45, !llvm.loop !42

102:                                              ; preds = %45
  br label %198

103:                                              ; preds = %6
  %104 = load i32, ptr %16, align 4, !tbaa !9
  %105 = load i32, ptr %17, align 4, !tbaa !9
  %106 = add nsw i32 %104, %105
  %107 = icmp ne i32 %106, 0
  br i1 %107, label %108, label %163

108:                                              ; preds = %103
  call void @llvm.lifetime.start.p0(i64 4, ptr %20) #3
  %109 = load i32, ptr %16, align 4, !tbaa !9
  %110 = load i32, ptr %17, align 4, !tbaa !9
  %111 = add nsw i32 %109, %110
  store i32 %111, ptr %20, align 4, !tbaa !9
  call void @llvm.lifetime.start.p0(i64 4, ptr %21) #3
  %112 = load i32, ptr %17, align 4, !tbaa !9
  %113 = icmp ne i32 %112, 0
  br i1 %113, label %114, label %116

114:                                              ; preds = %108
  %115 = load i64, ptr %9, align 8, !tbaa !14
  br label %117

116:                                              ; preds = %108
  br label %117

117:                                              ; preds = %116, %114
  %118 = phi i64 [ %115, %114 ], [ 1, %116 ]
  %119 = trunc i64 %118 to i32
  store i32 %119, ptr %21, align 4, !tbaa !9
  store i32 0, ptr %19, align 4, !tbaa !9
  br label %120

120:                                              ; preds = %159, %117
  %121 = load i32, ptr %19, align 4, !tbaa !9
  %122 = load i32, ptr %10, align 4, !tbaa !9
  %123 = icmp slt i32 %121, %122
  br i1 %123, label %124, label %162

124:                                              ; preds = %120
  %125 = load ptr, ptr %13, align 8, !tbaa !16
  %126 = getelementptr inbounds i16, ptr %125, i64 0
  %127 = load i16, ptr %126, align 2, !tbaa !18
  %128 = zext i16 %127 to i32
  %129 = load i32, ptr %15, align 4, !tbaa !9
  %130 = load ptr, ptr %14, align 8, !tbaa !16
  %131 = getelementptr inbounds i16, ptr %130, i64 0
  %132 = load i16, ptr %131, align 2, !tbaa !18
  %133 = zext i16 %132 to i32
  %134 = mul nsw i32 %129, %133
  %135 = load i32, ptr %20, align 4, !tbaa !9
  %136 = load ptr, ptr %14, align 8, !tbaa !16
  %137 = load i32, ptr %21, align 4, !tbaa !9
  %138 = add nsw i32 %137, 0
  %139 = sext i32 %138 to i64
  %140 = getelementptr inbounds i16, ptr %136, i64 %139
  %141 = load i16, ptr %140, align 2, !tbaa !18
  %142 = zext i16 %141 to i32
  %143 = mul nsw i32 %135, %142
  %144 = add nsw i32 %134, %143
  %145 = add nsw i32 %144, 32
  %146 = ashr i32 %145, 6
  %147 = add nsw i32 %128, %146
  %148 = add nsw i32 %147, 1
  %149 = ashr i32 %148, 1
  %150 = trunc i32 %149 to i16
  %151 = load ptr, ptr %13, align 8, !tbaa !16
  %152 = getelementptr inbounds i16, ptr %151, i64 0
  store i16 %150, ptr %152, align 2, !tbaa !18
  %153 = load i64, ptr %9, align 8, !tbaa !14
  %154 = load ptr, ptr %13, align 8, !tbaa !16
  %155 = getelementptr inbounds i16, ptr %154, i64 %153
  store ptr %155, ptr %13, align 8, !tbaa !16
  %156 = load i64, ptr %9, align 8, !tbaa !14
  %157 = load ptr, ptr %14, align 8, !tbaa !16
  %158 = getelementptr inbounds i16, ptr %157, i64 %156
  store ptr %158, ptr %14, align 8, !tbaa !16
  br label %159

159:                                              ; preds = %124
  %160 = load i32, ptr %19, align 4, !tbaa !9
  %161 = add nsw i32 %160, 1
  store i32 %161, ptr %19, align 4, !tbaa !9
  br label %120, !llvm.loop !43

162:                                              ; preds = %120
  call void @llvm.lifetime.end.p0(i64 4, ptr %21) #3
  call void @llvm.lifetime.end.p0(i64 4, ptr %20) #3
  br label %197

163:                                              ; preds = %103
  store i32 0, ptr %19, align 4, !tbaa !9
  br label %164

164:                                              ; preds = %193, %163
  %165 = load i32, ptr %19, align 4, !tbaa !9
  %166 = load i32, ptr %10, align 4, !tbaa !9
  %167 = icmp slt i32 %165, %166
  br i1 %167, label %168, label %196

168:                                              ; preds = %164
  %169 = load ptr, ptr %13, align 8, !tbaa !16
  %170 = getelementptr inbounds i16, ptr %169, i64 0
  %171 = load i16, ptr %170, align 2, !tbaa !18
  %172 = zext i16 %171 to i32
  %173 = load i32, ptr %15, align 4, !tbaa !9
  %174 = load ptr, ptr %14, align 8, !tbaa !16
  %175 = getelementptr inbounds i16, ptr %174, i64 0
  %176 = load i16, ptr %175, align 2, !tbaa !18
  %177 = zext i16 %176 to i32
  %178 = mul nsw i32 %173, %177
  %179 = add nsw i32 %178, 32
  %180 = ashr i32 %179, 6
  %181 = add nsw i32 %172, %180
  %182 = add nsw i32 %181, 1
  %183 = ashr i32 %182, 1
  %184 = trunc i32 %183 to i16
  %185 = load ptr, ptr %13, align 8, !tbaa !16
  %186 = getelementptr inbounds i16, ptr %185, i64 0
  store i16 %184, ptr %186, align 2, !tbaa !18
  %187 = load i64, ptr %9, align 8, !tbaa !14
  %188 = load ptr, ptr %13, align 8, !tbaa !16
  %189 = getelementptr inbounds i16, ptr %188, i64 %187
  store ptr %189, ptr %13, align 8, !tbaa !16
  %190 = load i64, ptr %9, align 8, !tbaa !14
  %191 = load ptr, ptr %14, align 8, !tbaa !16
  %192 = getelementptr inbounds i16, ptr %191, i64 %190
  store ptr %192, ptr %14, align 8, !tbaa !16
  br label %193

193:                                              ; preds = %168
  %194 = load i32, ptr %19, align 4, !tbaa !9
  %195 = add nsw i32 %194, 1
  store i32 %195, ptr %19, align 4, !tbaa !9
  br label %164, !llvm.loop !44

196:                                              ; preds = %164
  br label %197

197:                                              ; preds = %196, %162
  br label %198

198:                                              ; preds = %197, %102
  call void @llvm.lifetime.end.p0(i64 4, ptr %19) #3
  call void @llvm.lifetime.end.p0(i64 4, ptr %18) #3
  call void @llvm.lifetime.end.p0(i64 4, ptr %17) #3
  call void @llvm.lifetime.end.p0(i64 4, ptr %16) #3
  call void @llvm.lifetime.end.p0(i64 4, ptr %15) #3
  call void @llvm.lifetime.end.p0(i64 8, ptr %14) #3
  call void @llvm.lifetime.end.p0(i64 8, ptr %13) #3
  ret void
}