; Function Attrs: nofree norecurse nosync nounwind memory(argmem: readwrite) uwtable
define internal void @avg_h264_chroma_mc1_16_c(ptr noundef captures(none) %0, ptr noundef readonly captures(none) %1, i64 noundef %2, i32 noundef %3, i32 noundef %4, i32 noundef %5) #1 {
  %7 = sub nsw i32 8, %4
  %8 = sub nsw i32 8, %5
  %9 = mul nsw i32 %8, %7
  %10 = mul nsw i32 %8, %4
  %11 = mul nsw i32 %7, %5
  %12 = mul nsw i32 %5, %4
  %13 = ashr i64 %2, 1
  %.not = icmp eq i32 %12, 0
  br i1 %.not, label %43, label %.preheader72

.preheader72:                                     ; preds = %6
  %14 = icmp sgt i32 %3, 0
  br i1 %14, label %.lr.ph, label %.loopexit

.lr.ph:                                           ; preds = %.preheader72, %.lr.ph
  %.076 = phi ptr [ %41, %.lr.ph ], [ %0, %.preheader72 ]
  %.06175 = phi i32 [ %42, %.lr.ph ], [ 0, %.preheader72 ]
  %.06474 = phi ptr [ %24, %.lr.ph ], [ %1, %.preheader72 ]
  %15 = load i16, ptr %.076, align 2, !tbaa !8
  %16 = zext i16 %15 to i32
  %17 = load i16, ptr %.06474, align 2, !tbaa !8
  %18 = zext i16 %17 to i32
  %19 = mul nsw i32 %9, %18
  %20 = getelementptr inbounds nuw i8, ptr %.06474, i64 2
  %21 = load i16, ptr %20, align 2, !tbaa !8
  %22 = zext i16 %21 to i32
  %23 = mul nsw i32 %10, %22
  %24 = getelementptr inbounds i16, ptr %.06474, i64 %13
  %25 = load i16, ptr %24, align 2, !tbaa !8
  %26 = zext i16 %25 to i32
  %27 = mul nsw i32 %11, %26
  %28 = getelementptr i8, ptr %24, i64 2
  %29 = load i16, ptr %28, align 2, !tbaa !8
  %30 = zext i16 %29 to i32
  %31 = mul nsw i32 %12, %30
  %32 = add i32 %19, 32
  %33 = add i32 %32, %23
  %34 = add i32 %33, %27
  %35 = add i32 %34, %31
  %36 = lshr i32 %35, 6
  %37 = add nuw nsw i32 %16, 1
  %38 = add nuw nsw i32 %37, %36
  %39 = lshr i32 %38, 1
  %40 = trunc i32 %39 to i16
  store i16 %40, ptr %.076, align 2, !tbaa !8
  %41 = getelementptr inbounds i16, ptr %.076, i64 %13
  %42 = add nuw nsw i32 %.06175, 1
  %exitcond.not = icmp eq i32 %42, %3
  br i1 %exitcond.not, label %.loopexit, label %.lr.ph, !llvm.loop !32

43:                                               ; preds = %6
  %44 = add nsw i32 %10, %11
  %.not69 = icmp eq i32 %44, 0
  %45 = icmp sgt i32 %3, 0
  br i1 %.not69, label %.preheader, label %46

.preheader:                                       ; preds = %43
  br i1 %45, label %.lr.ph84, label %.loopexit

46:                                               ; preds = %43
  br i1 %45, label %.lr.ph80, label %.loopexit

.lr.ph80:                                         ; preds = %46
  %.not70 = icmp eq i32 %11, 0
  %47 = shl i64 %13, 32
  %48 = ashr exact i64 %47, 32
  %49 = select i1 %.not70, i64 1, i64 %48
  br label %50

50:                                               ; preds = %.lr.ph80, %50
  %.179 = phi ptr [ %0, %.lr.ph80 ], [ %67, %50 ]
  %.16278 = phi i32 [ 0, %.lr.ph80 ], [ %69, %50 ]
  %.16577 = phi ptr [ %1, %.lr.ph80 ], [ %68, %50 ]
  %51 = load i16, ptr %.179, align 2, !tbaa !8
  %52 = zext i16 %51 to i32
  %53 = load i16, ptr %.16577, align 2, !tbaa !8
  %54 = zext i16 %53 to i32
  %55 = mul nsw i32 %9, %54
  %56 = getelementptr inbounds i16, ptr %.16577, i64 %49
  %57 = load i16, ptr %56, align 2, !tbaa !8
  %58 = zext i16 %57 to i32
  %59 = mul nsw i32 %44, %58
  %60 = add i32 %55, 32
  %61 = add i32 %60, %59
  %62 = lshr i32 %61, 6
  %63 = add nuw nsw i32 %52, 1
  %64 = add nuw nsw i32 %63, %62
  %65 = lshr i32 %64, 1
  %66 = trunc i32 %65 to i16
  store i16 %66, ptr %.179, align 2, !tbaa !8
  %67 = getelementptr inbounds i16, ptr %.179, i64 %13
  %68 = getelementptr inbounds i16, ptr %.16577, i64 %13
  %69 = add nuw nsw i32 %.16278, 1
  %exitcond87.not = icmp eq i32 %69, %3
  br i1 %exitcond87.not, label %.loopexit, label %50, !llvm.loop !33

.lr.ph84:                                         ; preds = %.preheader, %.lr.ph84
  %.283 = phi ptr [ %81, %.lr.ph84 ], [ %0, %.preheader ]
  %.26382 = phi i32 [ %83, %.lr.ph84 ], [ 0, %.preheader ]
  %.26681 = phi ptr [ %82, %.lr.ph84 ], [ %1, %.preheader ]
  %70 = load i16, ptr %.283, align 2, !tbaa !8
  %71 = zext i16 %70 to i32
  %72 = load i16, ptr %.26681, align 2, !tbaa !8
  %73 = zext i16 %72 to i32
  %74 = mul nsw i32 %9, %73
  %75 = add nsw i32 %74, 32
  %76 = lshr i32 %75, 6
  %77 = add nuw nsw i32 %71, 1
  %78 = add nuw nsw i32 %77, %76
  %79 = lshr i32 %78, 1
  %80 = trunc i32 %79 to i16
  store i16 %80, ptr %.283, align 2, !tbaa !8
  %81 = getelementptr inbounds i16, ptr %.283, i64 %13
  %82 = getelementptr inbounds i16, ptr %.26681, i64 %13
  %83 = add nuw nsw i32 %.26382, 1
  %exitcond88.not = icmp eq i32 %83, %3
  br i1 %exitcond88.not, label %.loopexit, label %.lr.ph84, !llvm.loop !34

.loopexit:                                        ; preds = %.lr.ph, %50, %.lr.ph84, %.preheader72, %46, %.preheader
  ret void
}